target datalayout = "e-m:e-p270:32:32-p271:32:32-p272:64:64-i64:64-i128:128-f80:128-n8:16:32:64-S128"
target triple = "x86_64-pc-linux-gnu"

%struct.Nwk_Man_t_ = type { ptr, ptr, ptr, ptr, ptr, [5 x i32], i32, ptr, ptr, ptr, ptr, ptr, i32, i32, i32, i32, i32 }
%struct.Nwk_Obj_t_ = type { ptr, ptr, ptr, %union.anon, i32, i32, i32, i32, float, float, float, i32, i32, i32, ptr }
%union.anon = type { ptr }

; Function Attrs: nounwind uwtable
define internal void @Nwk_ObjSetTravIdCurrent(ptr noundef %0) #0 {
  %2 = alloca ptr, align 8
  store ptr %0, ptr %2, align 8
  %3 = load ptr, ptr %2, align 8
  %4 = getelementptr inbounds %struct.Nwk_Obj_t_, ptr %3, i32 0, i32 0
  %5 = load ptr, ptr %4, align 8
  %6 = getelementptr inbounds %struct.Nwk_Man_t_, ptr %5, i32 0, i32 12
  %7 = load i32, ptr %6, align 8
  %8 = load ptr, ptr %2, align 8
  %9 = getelementptr inbounds %struct.Nwk_Obj_t_, ptr %8, i32 0, i32 6
  store i32 %7, ptr %9, align 8
  ret void
}

; Function Attrs: nounwind uwtable
define internal i32 @Nwk_ObjIsTravIdCurrent(ptr noundef %0) #0 {
  %2 = alloca ptr, align 8
  store ptr %0, ptr %2, align 8
  %3 = load ptr, ptr %2, align 8
  %4 = getelementptr inbounds %struct.Nwk_Obj_t_, ptr %3, i32 0, i32 6
  %5 = load i32, ptr %4, align 8
  %6 = load ptr, ptr %2, align 8
  %7 = getelementptr inbounds %struct.Nwk_Obj_t_, ptr %6, i32 0, i32 0
  %8 = load ptr, ptr %7, align 8
  %9 = getelementptr inbounds %struct.Nwk_Man_t_, ptr %8, i32 0, i32 12
  %10 = load i32, ptr %9, align 8
  %11 = icmp eq i32 %5, %10
  %12 = zext i1 %11 to i32
  ret i32 %12
}

; Function Attrs: nounwind uwtable
define internal i32 @Nwk_ObjIsCi(ptr noundef %0) #0 {
  %2 = alloca ptr, align 8
  store ptr %0, ptr %2, align 8
  %3 = load ptr, ptr %2, align 8
  %4 = getelementptr inbounds %struct.Nwk_Obj_t_, ptr %3, i32 0, i32 4
  %5 = load i32, ptr %4, align 8
  %6 = and i32 %5, 7
  %7 = icmp eq i32 %6, 1
  %8 = zext i1 %7 to i32
  ret i32 %8
}

; Function Attrs: nounwind uwtable
define void @Nwk_ObjMffcLabel_rec(ptr noundef %0, i32 noundef %1) #0 {
  %3 = alloca ptr, align 8
  %4 = alloca i32, align 4
  %5 = alloca ptr, align 8
  %6 = alloca i32, align 4
  store ptr %0, ptr %3, align 8
  store i32 %1, ptr %4, align 4
  %7 = load i32, ptr %4, align 4
  %8 = icmp ne i32 %7, 0
  br i1 %8, label %19, label %9

9:                                                ; preds = %2
  %10 = load ptr, ptr %3, align 8
  %11 = call i32 @Nwk_ObjIsCi(ptr noundef %10)
  %12 = icmp ne i32 %11, 0
  br i1 %12, label %18, label %13

13:                                               ; preds = %9
  %14 = load ptr, ptr %3, align 8
  %15 = getelementptr inbounds %struct.Nwk_Obj_t_, ptr %14, i32 0, i32 12
  %16 = load i32, ptr %15, align 8
  %17 = icmp sgt i32 %16, 0
  br i1 %17, label %18, label %19

18:                                               ; preds = %13, %9
  br label %48

19:                                               ; preds = %13, %2
  %20 = load ptr, ptr %3, align 8
  %21 = call i32 @Nwk_ObjIsTravIdCurrent(ptr noundef %20)
  %22 = icmp ne i32 %21, 0
  br i1 %22, label %23, label %24

23:                                               ; preds = %19
  br label %48

24:                                               ; preds = %19
  %25 = load ptr, ptr %3, align 8
  call void @Nwk_ObjSetTravIdCurrent(ptr noundef %25)
  store i32 0, ptr %6, align 4
  br label %26

26:                                               ; preds = %45, %24
  %27 = load i32, ptr %6, align 4
  %28 = load ptr, ptr %3, align 8
  %29 = getelementptr inbounds %struct.Nwk_Obj_t_, ptr %28, i32 0, i32 11
  %30 = load i32, ptr %29, align 4
  %31 = icmp slt i32 %27, %30
  br i1 %31, label %32, label %41

32:                                               ; preds = %26
  %33 = load ptr, ptr %3, align 8
  %34 = getelementptr inbounds %struct.Nwk_Obj_t_, ptr %33, i32 0, i32 14
  %35 = load ptr, ptr %34, align 8
  %36 = load i32, ptr %6, align 4
  %37 = sext i32 %36 to i64
  %38 = getelementptr inbounds ptr, ptr %35, i64 %37
  %39 = load ptr, ptr %38, align 8
  store ptr %39, ptr %5, align 8
  %40 = icmp ne ptr %39, null
  br label %41

41:                                               ; preds = %32, %26
  %42 = phi i1 [ false, %26 ], [ %40, %32 ]
  br i1 %42, label %43, label %48

43:                                               ; preds = %41
  %44 = load ptr, ptr %5, align 8
  call void @Nwk_ObjMffcLabel_rec(ptr noundef %44, i32 noundef 0)
  br label %45

45:                                               ; preds = %43
  %46 = load i32, ptr %6, align 4
  %47 = add nsw i32 %46, 1
  store i32 %47, ptr %6, align 4
  br label %26, !llvm.loop !33

48:                                               ; preds = %41, %23, %18
  ret void
}