; Function Attrs: nofree nosync nounwind memory(readwrite, inaccessiblemem: none) uwtable
define void @Nwk_ObjMffcLabel_rec(ptr noundef captures(none) %0, i32 noundef %1) local_unnamed_addr #3 {
  %.not = icmp eq i32 %1, 0
  br i1 %.not, label %3, label %10

3:                                                ; preds = %2
  %4 = getelementptr i8, ptr %0, i64 32
  %.val15 = load i32, ptr %4, align 8
  %5 = and i32 %.val15, 7
  %.not16 = icmp eq i32 %5, 1
  br i1 %.not16, label %.critedge, label %6

6:                                                ; preds = %3
  %7 = getelementptr inbounds nuw i8, ptr %0, i64 64
  %8 = load i32, ptr %7, align 8
  %9 = icmp sgt i32 %8, 0
  br i1 %9, label %.critedge, label %10

10:                                               ; preds = %6, %2
  %.val = load ptr, ptr %0, align 8
  %11 = getelementptr i8, ptr %0, i64 40
  %.val14 = load i32, ptr %11, align 8
  %12 = getelementptr i8, ptr %.val, i64 104
  %.val.val = load i32, ptr %12, align 8
  %.not17 = icmp eq i32 %.val14, %.val.val
  br i1 %.not17, label %.critedge, label %13

13:                                               ; preds = %10
  store i32 %.val.val, ptr %11, align 8
  %14 = getelementptr inbounds nuw i8, ptr %0, i64 72
  %15 = getelementptr inbounds nuw i8, ptr %0, i64 60
  %16 = load i32, ptr %15, align 4
  %17 = icmp sgt i32 %16, 0
  br i1 %17, label %.lr.ph, label %.critedge

.lr.ph:                                           ; preds = %13, %21
  %indvars.iv = phi i64 [ %indvars.iv.next, %21 ], [ 0, %13 ]
  %18 = load ptr, ptr %14, align 8
  %19 = getelementptr inbounds nuw ptr, ptr %18, i64 %indvars.iv
  %20 = load ptr, ptr %19, align 8
  %.not13 = icmp eq ptr %20, null
  br i1 %.not13, label %.critedge, label %21

21:                                               ; preds = %.lr.ph
  tail call void @Nwk_ObjMffcLabel_rec(ptr noundef nonnull %20, i32 noundef 0)
  %indvars.iv.next = add nuw nsw i64 %indvars.iv, 1
  %22 = load i32, ptr %15, align 4
  %23 = sext i32 %22 to i64
  %24 = icmp slt i64 %indvars.iv.next, %23
  br i1 %24, label %.lr.ph, label %.critedge, !llvm.loop !33

.critedge:                                        ; preds = %.lr.ph, %21, %13, %10, %3, %6
  ret void
}